; Function Attrs: nofree norecurse nosync nounwind memory(read, inaccessiblemem: none) uwtable
define hidden noundef zeroext i1 @lexbor_str_data_cmp_ws(ptr nocapture noundef readonly %0, ptr nocapture noundef readonly %1) local_unnamed_addr #7 {
  %3 = load i8, ptr %0, align 1
  %4 = load i8, ptr %1, align 1
  %.not14 = icmp eq i8 %3, %4
  br i1 %.not14, label %.lr.ph, label %._crit_edge

.lr.ph:                                           ; preds = %2, %7
  %5 = phi i8 [ %10, %7 ], [ %3, %2 ]
  %.016 = phi ptr [ %9, %7 ], [ %1, %2 ]
  %.01115 = phi ptr [ %8, %7 ], [ %0, %2 ]
  %6 = icmp ult i8 %5, 33
  br i1 %6, label %switch.hole_check, label %7

7:                                                ; preds = %switch.hole_check, %.lr.ph
  %8 = getelementptr inbounds i8, ptr %.01115, i64 1
  %9 = getelementptr inbounds i8, ptr %.016, i64 1
  %10 = load i8, ptr %8, align 1
  %11 = load i8, ptr %9, align 1
  %.not = icmp eq i8 %10, %11
  br i1 %.not, label %.lr.ph, label %._crit_edge

switch.hole_check:                                ; preds = %.lr.ph
  %switch.maskindex = zext nneg i8 %5 to i64
  %switch.shifted = lshr i64 4294981121, %switch.maskindex
  %12 = and i64 %switch.shifted, 1
  %switch.lobit.not = icmp eq i64 %12, 0
  br i1 %switch.lobit.not, label %7, label %._crit_edge

._crit_edge:                                      ; preds = %7, %switch.hole_check, %2
  %.not.lcssa = phi i1 [ false, %2 ], [ true, %switch.hole_check ], [ false, %7 ]
  ret i1 %.not.lcssa
}